target datalayout = "e-m:e-p270:32:32-p271:32:32-p272:64:64-i64:64-i128:128-f80:128-n8:16:32:64-S128"
target triple = "x86_64-pc-linux-gnu"

%"class.rocksdb::CacheKey" = type { i64, i64 }
%"struct.std::array" = type { [2 x i64] }

; Function Attrs: mustprogress nounwind uwtable
define linkonce_odr noundef nonnull align 8 dereferenceable(8) ptr @_ZNSt14__array_traitsImLm2EE6_S_refERA2_Kmm(ptr noundef nonnull align 8 dereferenceable(16) %0, i64 noundef %1) #2 comdat align 2 {
  %3 = alloca ptr, align 8
  %4 = alloca i64, align 8
  store ptr %0, ptr %3, align 8, !tbaa !37
  store i64 %1, ptr %4, align 8, !tbaa !11
  %5 = load ptr, ptr %3, align 8, !tbaa !37
  %6 = load i64, ptr %4, align 8, !tbaa !11
  %7 = getelementptr inbounds nuw [2 x i64], ptr %5, i64 0, i64 %6
  ret ptr %7
}

; Function Attrs: inlinehint mustprogress nounwind uwtable
define linkonce_odr noundef i64 @_ZN7rocksdb15EndianSwapValueImEET_S1_(i64 noundef %0) #4 comdat {
  %2 = alloca i64, align 8
  store i64 %0, ptr %2, align 8, !tbaa !11
  %3 = load i64, ptr %2, align 8, !tbaa !11
  %4 = call i64 @llvm.bswap.i64(i64 %3)
  ret i64 %4
}

; Function Attrs: inlinehint mustprogress nounwind uwtable
define linkonce_odr noundef i64 @_ZN7rocksdb18DownwardInvolutionImEET_S1_(i64 noundef %0) #4 comdat {
  %2 = alloca i64, align 8
  %3 = alloca i64, align 8
  store i64 %0, ptr %2, align 8, !tbaa !11
  call void @llvm.lifetime.start.p0(i64 8, ptr %3) #12
  %4 = load i64, ptr %2, align 8, !tbaa !11
  store i64 %4, ptr %3, align 8, !tbaa !11
  %5 = load i64, ptr %3, align 8, !tbaa !11
  %6 = lshr i64 %5, 32
  %7 = load i64, ptr %3, align 8, !tbaa !11
  %8 = xor i64 %7, %6
  store i64 %8, ptr %3, align 8, !tbaa !11
  %9 = load i64, ptr %3, align 8, !tbaa !11
  %10 = and i64 %9, -281470681808896
  %11 = lshr i64 %10, 16
  %12 = load i64, ptr %3, align 8, !tbaa !11
  %13 = xor i64 %12, %11
  store i64 %13, ptr %3, align 8, !tbaa !11
  %14 = load i64, ptr %3, align 8, !tbaa !11
  %15 = and i64 %14, -71777214294589696
  %16 = lshr i64 %15, 8
  %17 = load i64, ptr %3, align 8, !tbaa !11
  %18 = xor i64 %17, %16
  store i64 %18, ptr %3, align 8, !tbaa !11
  %19 = load i64, ptr %3, align 8, !tbaa !11
  %20 = and i64 %19, -1085102592571150096
  %21 = lshr i64 %20, 4
  %22 = load i64, ptr %3, align 8, !tbaa !11
  %23 = xor i64 %22, %21
  store i64 %23, ptr %3, align 8, !tbaa !11
  %24 = load i64, ptr %3, align 8, !tbaa !11
  %25 = and i64 %24, -3689348814741910324
  %26 = lshr i64 %25, 2
  %27 = load i64, ptr %3, align 8, !tbaa !11
  %28 = xor i64 %27, %26
  store i64 %28, ptr %3, align 8, !tbaa !11
  %29 = load i64, ptr %3, align 8, !tbaa !11
  %30 = and i64 %29, -6148914691236517206
  %31 = lshr i64 %30, 1
  %32 = load i64, ptr %3, align 8, !tbaa !11
  %33 = xor i64 %32, %31
  store i64 %33, ptr %3, align 8, !tbaa !11
  %34 = load i64, ptr %3, align 8, !tbaa !11
  call void @llvm.lifetime.end.p0(i64 8, ptr %3) #12
  ret i64 %34
}

; Function Attrs: mustprogress nounwind uwtable
define linkonce_odr noundef nonnull align 8 dereferenceable(8) ptr @_ZNSt5arrayImLm2EEixEm(ptr noundef nonnull align 8 dereferenceable(16) %0, i64 noundef %1) #2 comdat align 2 {
  %3 = alloca ptr, align 8
  %4 = alloca i64, align 8
  store ptr %0, ptr %3, align 8, !tbaa !28
  store i64 %1, ptr %4, align 8, !tbaa !11
  %5 = load ptr, ptr %3, align 8
  %6 = getelementptr inbounds nuw %"struct.std::array", ptr %5, i32 0, i32 0
  %7 = load i64, ptr %4, align 8, !tbaa !11
  %8 = call noundef nonnull align 8 dereferenceable(8) ptr @_ZNSt14__array_traitsImLm2EE6_S_refERA2_Kmm(ptr noundef nonnull align 8 dereferenceable(16) %6, i64 noundef %7) #12
  ret ptr %8
}

; Function Attrs: inlinehint mustprogress uwtable
define linkonce_odr noundef i64 @_ZN7rocksdb11ReverseBitsImEET_S1_(i64 noundef %0) #7 comdat {
  %2 = alloca i64, align 8
  %3 = alloca i64, align 8
  %4 = alloca i64, align 8
  %5 = alloca i64, align 8
  store i64 %0, ptr %2, align 8, !tbaa !11
  call void @llvm.lifetime.start.p0(i64 8, ptr %3) #12
  %6 = load i64, ptr %2, align 8, !tbaa !11
  %7 = call noundef i64 @_ZN7rocksdb15EndianSwapValueImEET_S1_(i64 noundef %6)
  store i64 %7, ptr %3, align 8, !tbaa !11
  call void @llvm.lifetime.start.p0(i64 8, ptr %4) #12
  store i64 72057594037927936, ptr %4, align 8, !tbaa !11
  call void @llvm.lifetime.start.p0(i64 8, ptr %5) #12
  store i64 72340172838076673, ptr %5, align 8, !tbaa !11
  %8 = load i64, ptr %3, align 8, !tbaa !11
  %9 = and i64 %8, 1085102592571150095
  %10 = shl i64 %9, 4
  %11 = load i64, ptr %3, align 8, !tbaa !11
  %12 = lshr i64 %11, 4
  %13 = and i64 %12, 1085102592571150095
  %14 = or i64 %10, %13
  store i64 %14, ptr %3, align 8, !tbaa !11
  %15 = load i64, ptr %3, align 8, !tbaa !11
  %16 = and i64 %15, 3689348814741910323
  %17 = shl i64 %16, 2
  %18 = load i64, ptr %3, align 8, !tbaa !11
  %19 = lshr i64 %18, 2
  %20 = and i64 %19, 3689348814741910323
  %21 = or i64 %17, %20
  store i64 %21, ptr %3, align 8, !tbaa !11
  %22 = load i64, ptr %3, align 8, !tbaa !11
  %23 = and i64 %22, 6148914691236517205
  %24 = shl i64 %23, 1
  %25 = load i64, ptr %3, align 8, !tbaa !11
  %26 = lshr i64 %25, 1
  %27 = and i64 %26, 6148914691236517205
  %28 = or i64 %24, %27
  store i64 %28, ptr %3, align 8, !tbaa !11
  %29 = load i64, ptr %3, align 8, !tbaa !11
  call void @llvm.lifetime.end.p0(i64 8, ptr %5) #12
  call void @llvm.lifetime.end.p0(i64 8, ptr %4) #12
  call void @llvm.lifetime.end.p0(i64 8, ptr %3) #12
  ret i64 %29
}

; Function Attrs: inlinehint mustprogress nounwind uwtable
define linkonce_odr void @_ZSt4swapImENSt9enable_ifIXsr6__and_ISt6__not_ISt15__is_tuple_likeIT_EESt21is_move_constructibleIS3_ESt18is_move_assignableIS3_EEE5valueEvE4typeERS3_SC_(ptr noundef nonnull align 8 dereferenceable(8) %0, ptr noundef nonnull align 8 dereferenceable(8) %1) #4 comdat {
  %3 = alloca ptr, align 8
  %4 = alloca ptr, align 8
  %5 = alloca i64, align 8
  store ptr %0, ptr %3, align 8, !tbaa !37
  store ptr %1, ptr %4, align 8, !tbaa !37
  call void @llvm.lifetime.start.p0(i64 8, ptr %5) #12
  %6 = load ptr, ptr %3, align 8, !tbaa !37
  %7 = load i64, ptr %6, align 8, !tbaa !11
  store i64 %7, ptr %5, align 8, !tbaa !11
  %8 = load ptr, ptr %4, align 8, !tbaa !37
  %9 = load i64, ptr %8, align 8, !tbaa !11
  %10 = load ptr, ptr %3, align 8, !tbaa !37
  store i64 %9, ptr %10, align 8, !tbaa !11
  %11 = load i64, ptr %5, align 8, !tbaa !11
  %12 = load ptr, ptr %4, align 8, !tbaa !37
  store i64 %11, ptr %12, align 8, !tbaa !11
  call void @llvm.lifetime.end.p0(i64 8, ptr %5) #12
  ret void
}

; Function Attrs: mustprogress uwtable
define { i64, i64 } @_ZN7rocksdb18OffsetableCacheKey18ToInternalUniqueIdEv(ptr noundef nonnull align 8 dereferenceable(16) %0) #0 align 2 {
  %2 = alloca %"struct.std::array", align 8
  %3 = alloca ptr, align 8
  %4 = alloca i64, align 8
  %5 = alloca i64, align 8
  store ptr %0, ptr %3, align 8, !tbaa !22
  %6 = load ptr, ptr %3, align 8
  call void @llvm.lifetime.start.p0(i64 8, ptr %4) #12
  %7 = getelementptr inbounds nuw %"class.rocksdb::CacheKey", ptr %6, i32 0, i32 0
  %8 = load i64, ptr %7, align 8, !tbaa !15
  store i64 %8, ptr %4, align 8, !tbaa !11
  call void @llvm.lifetime.start.p0(i64 8, ptr %5) #12
  %9 = getelementptr inbounds nuw %"class.rocksdb::CacheKey", ptr %6, i32 0, i32 1
  %10 = load i64, ptr %9, align 8, !tbaa !17
  store i64 %10, ptr %5, align 8, !tbaa !11
  %11 = load i64, ptr %5, align 8, !tbaa !11
  %12 = icmp eq i64 %11, 0
  br i1 %12, label %13, label %14

13:                                               ; preds = %1
  call void @_ZSt4swapImENSt9enable_ifIXsr6__and_ISt6__not_ISt15__is_tuple_likeIT_EESt21is_move_constructibleIS3_ESt18is_move_assignableIS3_EEE5valueEvE4typeERS3_SC_(ptr noundef nonnull align 8 dereferenceable(8) %4, ptr noundef nonnull align 8 dereferenceable(8) %5) #12
  br label %14

14:                                               ; preds = %13, %1
  %15 = load i64, ptr %5, align 8, !tbaa !11
  %16 = call noundef i64 @_ZN7rocksdb11ReverseBitsImEET_S1_(i64 noundef %15)
  %17 = call noundef nonnull align 8 dereferenceable(8) ptr @_ZNSt5arrayImLm2EEixEm(ptr noundef nonnull align 8 dereferenceable(16) %2, i64 noundef 0) #12
  store i64 %16, ptr %17, align 8, !tbaa !11
  %18 = load i64, ptr %4, align 8, !tbaa !11
  %19 = call noundef nonnull align 8 dereferenceable(8) ptr @_ZNSt5arrayImLm2EEixEm(ptr noundef nonnull align 8 dereferenceable(16) %2, i64 noundef 0) #12
  %20 = load i64, ptr %19, align 8, !tbaa !11
  %21 = call noundef i64 @_ZN7rocksdb18DownwardInvolutionImEET_S1_(i64 noundef %20)
  %22 = xor i64 %18, %21
  %23 = call noundef i64 @_ZN7rocksdb11ReverseBitsImEET_S1_(i64 noundef %22)
  %24 = call noundef nonnull align 8 dereferenceable(8) ptr @_ZNSt5arrayImLm2EEixEm(ptr noundef nonnull align 8 dereferenceable(16) %2, i64 noundef 1) #12
  store i64 %23, ptr %24, align 8, !tbaa !11
  call void @llvm.lifetime.end.p0(i64 8, ptr %5) #12
  call void @llvm.lifetime.end.p0(i64 8, ptr %4) #12
  %25 = getelementptr inbounds nuw %"struct.std::array", ptr %2, i32 0, i32 0
  %26 = load { i64, i64 }, ptr %25, align 8
  ret { i64, i64 } %26
}