; Function Attrs: mustprogress nofree norecurse nosync nounwind willreturn memory(argmem: read) uwtable
define { i64, i64 } @_ZN7rocksdb18OffsetableCacheKey18ToInternalUniqueIdEv(ptr noundef nonnull readonly align 8 captures(none) dereferenceable(16) %0) local_unnamed_addr #4 align 2 {
  %2 = load i64, ptr %0, align 8, !tbaa !13
  %3 = getelementptr inbounds nuw i8, ptr %0, i64 8
  %4 = load i64, ptr %3, align 8, !tbaa !15
  %5 = icmp eq i64 %4, 0
  %spec.select = select i1 %5, i64 0, i64 %2
  %spec.select6 = select i1 %5, i64 %2, i64 %4
  %6 = tail call noundef i64 @llvm.bitreverse.i64(i64 %spec.select6)
  %7 = lshr i64 %6, 32
  %8 = xor i64 %7, %6
  %9 = lshr i64 %8, 16
  %10 = and i64 %9, 281470681808895
  %11 = xor i64 %10, %8
  %12 = lshr i64 %11, 8
  %13 = and i64 %12, 71777214294589695
  %14 = xor i64 %13, %11
  %15 = lshr i64 %14, 4
  %16 = and i64 %15, 1085102592571150095
  %17 = xor i64 %16, %14
  %18 = lshr i64 %17, 2
  %19 = and i64 %18, 3689348814741910323
  %20 = xor i64 %19, %17
  %21 = lshr i64 %20, 1
  %22 = and i64 %21, 6148914691236517205
  %23 = xor i64 %spec.select, %22
  %24 = xor i64 %23, %20
  %25 = tail call noundef i64 @llvm.bitreverse.i64(i64 %24)
  %.fca.0.insert = insertvalue { i64, i64 } poison, i64 %6, 0
  %.fca.1.insert = insertvalue { i64, i64 } %.fca.0.insert, i64 %25, 1
  ret { i64, i64 } %.fca.1.insert
}